target datalayout = "e-m:e-p270:32:32-p271:32:32-p272:64:64-i64:64-i128:128-f80:128-n8:16:32:64-S128"
target triple = "x86_64-pc-linux-gnu"

; Function Attrs: nounwind uwtable
define internal void @pad_block_int64(ptr noundef %0, i64 noundef %1, i64 noundef %2) #0 {
  %4 = alloca ptr, align 8
  %5 = alloca i64, align 8
  %6 = alloca i64, align 8
  store ptr %0, ptr %4, align 8, !tbaa !8
  store i64 %1, ptr %5, align 8, !tbaa !12
  store i64 %2, ptr %6, align 8, !tbaa !12
  %7 = load i64, ptr %5, align 8, !tbaa !12
  switch i64 %7, label %43 [
    i64 0, label %8
    i64 1, label %13
    i64 2, label %23
    i64 3, label %33
  ]

8:                                                ; preds = %3
  %9 = load ptr, ptr %4, align 8, !tbaa !8
  %10 = load i64, ptr %6, align 8, !tbaa !12
  %11 = mul nsw i64 0, %10
  %12 = getelementptr inbounds i64, ptr %9, i64 %11
  store i64 0, ptr %12, align 8, !tbaa !12
  br label %13

13:                                               ; preds = %3, %8
  %14 = load ptr, ptr %4, align 8, !tbaa !8
  %15 = load i64, ptr %6, align 8, !tbaa !12
  %16 = mul nsw i64 0, %15
  %17 = getelementptr inbounds i64, ptr %14, i64 %16
  %18 = load i64, ptr %17, align 8, !tbaa !12
  %19 = load ptr, ptr %4, align 8, !tbaa !8
  %20 = load i64, ptr %6, align 8, !tbaa !12
  %21 = mul nsw i64 1, %20
  %22 = getelementptr inbounds i64, ptr %19, i64 %21
  store i64 %18, ptr %22, align 8, !tbaa !12
  br label %23

23:                                               ; preds = %3, %13
  %24 = load ptr, ptr %4, align 8, !tbaa !8
  %25 = load i64, ptr %6, align 8, !tbaa !12
  %26 = mul nsw i64 1, %25
  %27 = getelementptr inbounds i64, ptr %24, i64 %26
  %28 = load i64, ptr %27, align 8, !tbaa !12
  %29 = load ptr, ptr %4, align 8, !tbaa !8
  %30 = load i64, ptr %6, align 8, !tbaa !12
  %31 = mul nsw i64 2, %30
  %32 = getelementptr inbounds i64, ptr %29, i64 %31
  store i64 %28, ptr %32, align 8, !tbaa !12
  br label %33

33:                                               ; preds = %3, %23
  %34 = load ptr, ptr %4, align 8, !tbaa !8
  %35 = load i64, ptr %6, align 8, !tbaa !12
  %36 = mul nsw i64 0, %35
  %37 = getelementptr inbounds i64, ptr %34, i64 %36
  %38 = load i64, ptr %37, align 8, !tbaa !12
  %39 = load ptr, ptr %4, align 8, !tbaa !8
  %40 = load i64, ptr %6, align 8, !tbaa !12
  %41 = mul nsw i64 3, %40
  %42 = getelementptr inbounds i64, ptr %39, i64 %41
  store i64 %38, ptr %42, align 8, !tbaa !12
  br label %43

43:                                               ; preds = %3, %33
  br label %44

44:                                               ; preds = %43
  ret void
}

; Function Attrs: nounwind uwtable
define internal void @gather_partial_int64_2(ptr noundef %0, ptr noundef %1, i64 noundef %2, i64 noundef %3, i64 noundef %4, i64 noundef %5) #0 {
  %7 = alloca ptr, align 8
  %8 = alloca ptr, align 8
  %9 = alloca i64, align 8
  %10 = alloca i64, align 8
  %11 = alloca i64, align 8
  %12 = alloca i64, align 8
  %13 = alloca i64, align 8
  %14 = alloca i64, align 8
  store ptr %0, ptr %7, align 8, !tbaa !8
  store ptr %1, ptr %8, align 8, !tbaa !8
  store i64 %2, ptr %9, align 8, !tbaa !12
  store i64 %3, ptr %10, align 8, !tbaa !12
  store i64 %4, ptr %11, align 8, !tbaa !12
  store i64 %5, ptr %12, align 8, !tbaa !12
  call void @llvm.lifetime.start.p0(i64 8, ptr %13) #4
  call void @llvm.lifetime.start.p0(i64 8, ptr %14) #4
  store i64 0, ptr %14, align 8, !tbaa !12
  br label %15

15:                                               ; preds = %45, %6
  %16 = load i64, ptr %14, align 8, !tbaa !12
  %17 = load i64, ptr %10, align 8, !tbaa !12
  %18 = icmp ult i64 %16, %17
  br i1 %18, label %19, label %55

19:                                               ; preds = %15
  store i64 0, ptr %13, align 8, !tbaa !12
  br label %20

20:                                               ; preds = %33, %19
  %21 = load i64, ptr %13, align 8, !tbaa !12
  %22 = load i64, ptr %9, align 8, !tbaa !12
  %23 = icmp ult i64 %21, %22
  br i1 %23, label %24, label %39

24:                                               ; preds = %20
  %25 = load ptr, ptr %8, align 8, !tbaa !8
  %26 = load i64, ptr %25, align 8, !tbaa !12
  %27 = load ptr, ptr %7, align 8, !tbaa !8
  %28 = load i64, ptr %14, align 8, !tbaa !12
  %29 = mul i64 4, %28
  %30 = load i64, ptr %13, align 8, !tbaa !12
  %31 = add i64 %29, %30
  %32 = getelementptr inbounds nuw i64, ptr %27, i64 %31
  store i64 %26, ptr %32, align 8, !tbaa !12
  br label %33

33:                                               ; preds = %24
  %34 = load i64, ptr %13, align 8, !tbaa !12
  %35 = add i64 %34, 1
  store i64 %35, ptr %13, align 8, !tbaa !12
  %36 = load i64, ptr %11, align 8, !tbaa !12
  %37 = load ptr, ptr %8, align 8, !tbaa !8
  %38 = getelementptr inbounds i64, ptr %37, i64 %36
  store ptr %38, ptr %8, align 8, !tbaa !8
  br label %20

39:                                               ; preds = %20
  %40 = load ptr, ptr %7, align 8, !tbaa !8
  %41 = load i64, ptr %14, align 8, !tbaa !12
  %42 = mul i64 4, %41
  %43 = getelementptr inbounds nuw i64, ptr %40, i64 %42
  %44 = load i64, ptr %9, align 8, !tbaa !12
  call void @pad_block_int64(ptr noundef %43, i64 noundef %44, i64 noundef 1)
  br label %45

45:                                               ; preds = %39
  %46 = load i64, ptr %14, align 8, !tbaa !12
  %47 = add i64 %46, 1
  store i64 %47, ptr %14, align 8, !tbaa !12
  %48 = load i64, ptr %12, align 8, !tbaa !12
  %49 = load i64, ptr %9, align 8, !tbaa !12
  %50 = load i64, ptr %11, align 8, !tbaa !12
  %51 = mul nsw i64 %49, %50
  %52 = sub nsw i64 %48, %51
  %53 = load ptr, ptr %8, align 8, !tbaa !8
  %54 = getelementptr inbounds i64, ptr %53, i64 %52
  store ptr %54, ptr %8, align 8, !tbaa !8
  br label %15

55:                                               ; preds = %15
  store i64 0, ptr %13, align 8, !tbaa !12
  br label %56

56:                                               ; preds = %64, %55
  %57 = load i64, ptr %13, align 8, !tbaa !12
  %58 = icmp ult i64 %57, 4
  br i1 %58, label %59, label %67

59:                                               ; preds = %56
  %60 = load ptr, ptr %7, align 8, !tbaa !8
  %61 = load i64, ptr %13, align 8, !tbaa !12
  %62 = getelementptr inbounds nuw i64, ptr %60, i64 %61
  %63 = load i64, ptr %10, align 8, !tbaa !12
  call void @pad_block_int64(ptr noundef %62, i64 noundef %63, i64 noundef 4)
  br label %64

64:                                               ; preds = %59
  %65 = load i64, ptr %13, align 8, !tbaa !12
  %66 = add i64 %65, 1
  store i64 %66, ptr %13, align 8, !tbaa !12
  br label %56

67:                                               ; preds = %56
  call void @llvm.lifetime.end.p0(i64 8, ptr %14) #4
  call void @llvm.lifetime.end.p0(i64 8, ptr %13) #4
  ret void
}

; Function Attrs: nounwind uwtable
define i64 @zfp_encode_partial_block_strided_int64_2(ptr noundef %0, ptr noundef %1, i64 noundef %2, i64 noundef %3, i64 noundef %4, i64 noundef %5) #0 {
  %7 = alloca ptr, align 8
  %8 = alloca ptr, align 8
  %9 = alloca i64, align 8
  %10 = alloca i64, align 8
  %11 = alloca i64, align 8
  %12 = alloca i64, align 8
  %13 = alloca [16 x i64], align 256
  store ptr %0, ptr %7, align 8, !tbaa !4
  store ptr %1, ptr %8, align 8, !tbaa !8
  store i64 %2, ptr %9, align 8, !tbaa !12
  store i64 %3, ptr %10, align 8, !tbaa !12
  store i64 %4, ptr %11, align 8, !tbaa !12
  store i64 %5, ptr %12, align 8, !tbaa !12
  call void @llvm.lifetime.start.p0(i64 128, ptr %13) #4
  %14 = getelementptr inbounds [16 x i64], ptr %13, i64 0, i64 0
  %15 = load ptr, ptr %8, align 8, !tbaa !8
  %16 = load i64, ptr %9, align 8, !tbaa !12
  %17 = load i64, ptr %10, align 8, !tbaa !12
  %18 = load i64, ptr %11, align 8, !tbaa !12
  %19 = load i64, ptr %12, align 8, !tbaa !12
  call void @gather_partial_int64_2(ptr noundef %14, ptr noundef %15, i64 noundef %16, i64 noundef %17, i64 noundef %18, i64 noundef %19)
  %20 = load ptr, ptr %7, align 8, !tbaa !4
  %21 = getelementptr inbounds [16 x i64], ptr %13, i64 0, i64 0
  %22 = call i64 @zfp_encode_block_int64_2(ptr noundef %20, ptr noundef %21)
  call void @llvm.lifetime.end.p0(i64 128, ptr %13) #4
  ret i64 %22
}