; Function Attrs: nofree norecurse nosync nounwind uwtable
define range(i64 0, 4294967296) i64 @zfp_encode_partial_block_strided_int64_2(ptr noundef readonly captures(none) %0, ptr noundef readonly captures(none) %1, i64 noundef %2, i64 noundef %3, i64 noundef %4, i64 noundef %5) local_unnamed_addr #0 {
  %7 = alloca [16 x i64], align 256
  call void @llvm.lifetime.start.p0(i64 128, ptr nonnull %7) #7
  %cond = icmp eq i64 %3, 0
  br i1 %cond, label %.preheader.i.split.us, label %.preheader35.lr.ph.i

.preheader35.lr.ph.i:                             ; preds = %6
  %.not69.i = icmp eq i64 %2, 0
  %8 = mul nsw i64 %4, %2
  %9 = sub nsw i64 %5, %8
  br i1 %.not69.i, label %.preheader35.us40.preheader.i, label %.preheader35.us.i

.preheader35.us.i:                                ; preds = %.preheader35.lr.ph.i, %pad_block_int64.exit.us.i
  %.039.us.i = phi i64 [ %18, %pad_block_int64.exit.us.i ], [ 0, %.preheader35.lr.ph.i ]
  %.02438.us.i = phi ptr [ %19, %pad_block_int64.exit.us.i ], [ %1, %.preheader35.lr.ph.i ]
  %.idx28.us.i = shl i64 %.039.us.i, 5
  %10 = getelementptr i8, ptr %7, i64 %.idx28.us.i
  br label %20

._crit_edge15.i.us.i:                             ; preds = %._crit_edge.us.i
  %.phi.trans.insert.i.us.i = getelementptr inbounds nuw i8, ptr %10, i64 8
  %.pre16.i.us.i = load i64, ptr %.phi.trans.insert.i.us.i, align 8, !tbaa !4
  br label %12

._crit_edge.i.us.i:                               ; preds = %._crit_edge.us.i
  %.pre.i.us.i = load i64, ptr %10, align 32, !tbaa !4
  %11 = getelementptr inbounds nuw i8, ptr %10, i64 8
  store i64 %.pre.i.us.i, ptr %11, align 8, !tbaa !4
  br label %12

12:                                               ; preds = %._crit_edge.i.us.i, %._crit_edge15.i.us.i
  %13 = phi i64 [ %.pre16.i.us.i, %._crit_edge15.i.us.i ], [ %.pre.i.us.i, %._crit_edge.i.us.i ]
  %14 = getelementptr inbounds nuw i8, ptr %10, i64 16
  store i64 %13, ptr %14, align 16, !tbaa !4
  br label %15

15:                                               ; preds = %._crit_edge.us.i, %12
  %16 = load i64, ptr %10, align 32, !tbaa !4
  %17 = getelementptr inbounds nuw i8, ptr %10, i64 24
  store i64 %16, ptr %17, align 8, !tbaa !4
  br label %pad_block_int64.exit.us.i

pad_block_int64.exit.us.i:                        ; preds = %._crit_edge.us.i, %15
  %18 = add nuw i64 %.039.us.i, 1
  %19 = getelementptr inbounds i64, ptr %24, i64 %9
  %exitcond75.not.i = icmp eq i64 %18, %3
  br i1 %exitcond75.not.i, label %.preheader.i, label %.preheader35.us.i

20:                                               ; preds = %20, %.preheader35.us.i
  %.02337.us.i = phi i64 [ 0, %.preheader35.us.i ], [ %23, %20 ]
  %.12536.us.i = phi ptr [ %.02438.us.i, %.preheader35.us.i ], [ %24, %20 ]
  %21 = load i64, ptr %.12536.us.i, align 8, !tbaa !4
  %22 = getelementptr i64, ptr %10, i64 %.02337.us.i
  store i64 %21, ptr %22, align 8, !tbaa !4
  %23 = add nuw i64 %.02337.us.i, 1
  %24 = getelementptr inbounds i64, ptr %.12536.us.i, i64 %4
  %exitcond.not.i = icmp eq i64 %23, %2
  br i1 %exitcond.not.i, label %._crit_edge.us.i, label %20

._crit_edge.us.i:                                 ; preds = %20
  switch i64 %2, label %pad_block_int64.exit.us.i [
    i64 3, label %15
    i64 1, label %._crit_edge.i.us.i
    i64 2, label %._crit_edge15.i.us.i
  ]

.preheader35.us40.preheader.i:                    ; preds = %.preheader35.lr.ph.i
  %25 = shl nuw i64 %3, 5
  call void @llvm.memset.p0.i64(ptr nonnull align 256 %7, i8 0, i64 %25, i1 false), !tbaa !4
  br label %.preheader.i

.preheader.i:                                     ; preds = %pad_block_int64.exit.us.i, %.preheader35.us40.preheader.i
  switch i64 %3, label %gather_partial_int64_2.exit [
    i64 3, label %pad_block_int64.exit34.i.us15
    i64 1, label %._crit_edge.i32.i.us
    i64 2, label %._crit_edge15.i29.i.us
  ]

.preheader.i.split.us:                            ; preds = %6
  call void @llvm.memset.p0.i64(ptr noundef nonnull align 256 dereferenceable(128) %7, i8 0, i64 128, i1 false)
  br label %gather_partial_int64_2.exit

._crit_edge.i32.i.us:                             ; preds = %.preheader.i, %._crit_edge.i32.i.us
  %.168.i.us6 = phi i64 [ %30, %._crit_edge.i32.i.us ], [ 0, %.preheader.i ]
  %26 = getelementptr inbounds nuw i64, ptr %7, i64 %.168.i.us6
  %.pre.i33.i.us = load i64, ptr %26, align 8, !tbaa !4
  %27 = getelementptr inbounds nuw i8, ptr %26, i64 32
  store i64 %.pre.i33.i.us, ptr %27, align 8, !tbaa !4
  %28 = getelementptr inbounds nuw i8, ptr %26, i64 64
  store i64 %.pre.i33.i.us, ptr %28, align 8, !tbaa !4
  %29 = getelementptr inbounds nuw i8, ptr %26, i64 96
  store i64 %.pre.i33.i.us, ptr %29, align 8, !tbaa !4
  %30 = add nuw nsw i64 %.168.i.us6, 1
  %exitcond79.not.i.us8 = icmp eq i64 %30, 4
  br i1 %exitcond79.not.i.us8, label %gather_partial_int64_2.exit, label %._crit_edge.i32.i.us

._crit_edge15.i29.i.us:                           ; preds = %.preheader.i, %._crit_edge15.i29.i.us
  %.168.i.us10 = phi i64 [ %35, %._crit_edge15.i29.i.us ], [ 0, %.preheader.i ]
  %31 = getelementptr inbounds nuw i64, ptr %7, i64 %.168.i.us10
  %.phi.trans.insert.i30.i.us = getelementptr inbounds nuw i8, ptr %31, i64 32
  %.pre16.i31.i.us = load i64, ptr %.phi.trans.insert.i30.i.us, align 8, !tbaa !4
  %32 = getelementptr inbounds nuw i8, ptr %31, i64 64
  store i64 %.pre16.i31.i.us, ptr %32, align 8, !tbaa !4
  %33 = load i64, ptr %31, align 8, !tbaa !4
  %34 = getelementptr inbounds nuw i8, ptr %31, i64 96
  store i64 %33, ptr %34, align 8, !tbaa !4
  %35 = add nuw nsw i64 %.168.i.us10, 1
  %exitcond79.not.i.us12 = icmp eq i64 %35, 4
  br i1 %exitcond79.not.i.us12, label %gather_partial_int64_2.exit, label %._crit_edge15.i29.i.us

pad_block_int64.exit34.i.us15:                    ; preds = %.preheader.i, %pad_block_int64.exit34.i.us15
  %.168.i.us14 = phi i64 [ %39, %pad_block_int64.exit34.i.us15 ], [ 0, %.preheader.i ]
  %36 = getelementptr inbounds nuw i64, ptr %7, i64 %.168.i.us14
  %37 = load i64, ptr %36, align 8, !tbaa !4
  %38 = getelementptr inbounds nuw i8, ptr %36, i64 96
  store i64 %37, ptr %38, align 8, !tbaa !4
  %39 = add nuw nsw i64 %.168.i.us14, 1
  %exitcond79.not.i.us16 = icmp eq i64 %39, 4
  br i1 %exitcond79.not.i.us16, label %gather_partial_int64_2.exit, label %pad_block_int64.exit34.i.us15

gather_partial_int64_2.exit:                      ; preds = %._crit_edge15.i29.i.us, %._crit_edge.i32.i.us, %pad_block_int64.exit34.i.us15, %.preheader.i, %.preheader.i.split.us
  %40 = call i64 @zfp_encode_block_int64_2(ptr noundef %0, ptr noundef nonnull %7)
  call void @llvm.lifetime.end.p0(i64 128, ptr nonnull %7) #7
  ret i64 %40
}